target datalayout = "e-m:e-p270:32:32-p271:32:32-p272:64:64-i64:64-i128:128-f80:128-n8:16:32:64-S128"
target triple = "x86_64-pc-linux-gnu"

%struct.pg_compress_specification = type { i32, i32, i32, i32, i8, ptr }
%struct.CompressFileHandle = type { ptr, ptr, ptr, ptr, ptr, ptr, ptr, ptr, ptr, %struct.pg_compress_specification, ptr }

@.str.8 = private unnamed_addr constant [2 x i8] c"r\00", align 1
@.str.9 = private unnamed_addr constant [35 x i8] c"could not open input file \22%s\22: %m\00", align 1
@.str.25 = private unnamed_addr constant [35 x i8] c"could not close data file \22%s\22: %m\00", align 1

; Function Attrs: nounwind uwtable
define internal void @_PrintFileData(ptr noundef %0, ptr noundef %1) #0 {
  %3 = alloca ptr, align 8
  %4 = alloca ptr, align 8
  %5 = alloca i64, align 8
  %6 = alloca ptr, align 8
  %7 = alloca i64, align 8
  %8 = alloca ptr, align 8
  %9 = alloca i32, align 4
  store ptr %0, ptr %3, align 8
  store ptr %1, ptr %4, align 8
  call void @llvm.lifetime.start.p0(i64 8, ptr %5) #9
  store i64 0, ptr %5, align 8
  call void @llvm.lifetime.start.p0(i64 8, ptr %6) #9
  call void @llvm.lifetime.start.p0(i64 8, ptr %7) #9
  call void @llvm.lifetime.start.p0(i64 8, ptr %8) #9
  %10 = load ptr, ptr %4, align 8
  %11 = icmp ne ptr %10, null
  br i1 %11, label %13, label %12

12:                                               ; preds = %2
  store i32 1, ptr %9, align 4
  br label %53

13:                                               ; preds = %2
  %14 = load ptr, ptr %4, align 8
  %15 = call ptr @InitDiscoverCompressFileHandle(ptr noundef %14, ptr noundef @.str.8)
  store ptr %15, ptr %8, align 8
  %16 = load ptr, ptr %8, align 8
  %17 = icmp ne ptr %16, null
  br i1 %17, label %23, label %18

18:                                               ; preds = %13
  br label %19

19:                                               ; preds = %18
  %20 = load ptr, ptr %4, align 8
  call void (i32, i32, ptr, ...) @pg_log_generic(i32 noundef 4, i32 noundef 0, ptr noundef @.str.9, ptr noundef %20)
  call void @exit_nicely(i32 noundef 1) #11
  unreachable

21:                                               ; No predecessors!
  br label %22

22:                                               ; preds = %21
  br label %23

23:                                               ; preds = %22, %13
  store i64 4096, ptr %7, align 8
  %24 = load i64, ptr %7, align 8
  %25 = call ptr @pg_malloc(i64 noundef %24)
  store ptr %25, ptr %6, align 8
  br label %26

26:                                               ; preds = %39, %23
  %27 = load ptr, ptr %8, align 8
  %28 = getelementptr inbounds nuw %struct.CompressFileHandle, ptr %27, i32 0, i32 2
  %29 = load ptr, ptr %28, align 8
  %30 = load ptr, ptr %6, align 8
  %31 = load i64, ptr %7, align 8
  %32 = load ptr, ptr %8, align 8
  %33 = call zeroext i1 %29(ptr noundef %30, i64 noundef %31, ptr noundef %5, ptr noundef %32)
  br i1 %33, label %34, label %37

34:                                               ; preds = %26
  %35 = load i64, ptr %5, align 8
  %36 = icmp ugt i64 %35, 0
  br label %37

37:                                               ; preds = %34, %26
  %38 = phi i1 [ false, %26 ], [ %36, %34 ]
  br i1 %38, label %39, label %43

39:                                               ; preds = %37
  %40 = load ptr, ptr %6, align 8
  %41 = load i64, ptr %5, align 8
  %42 = load ptr, ptr %3, align 8
  call void @ahwrite(ptr noundef %40, i64 noundef 1, i64 noundef %41, ptr noundef %42)
  br label %26, !llvm.loop !10

43:                                               ; preds = %37
  %44 = load ptr, ptr %6, align 8
  call void @free(ptr noundef %44) #9
  %45 = load ptr, ptr %8, align 8
  %46 = call zeroext i1 @EndCompressFileHandle(ptr noundef %45)
  br i1 %46, label %52, label %47

47:                                               ; preds = %43
  br label %48

48:                                               ; preds = %47
  %49 = load ptr, ptr %4, align 8
  call void (i32, i32, ptr, ...) @pg_log_generic(i32 noundef 4, i32 noundef 0, ptr noundef @.str.25, ptr noundef %49)
  call void @exit_nicely(i32 noundef 1) #11
  unreachable

50:                                               ; No predecessors!
  br label %51

51:                                               ; preds = %50
  br label %52

52:                                               ; preds = %51, %43
  store i32 0, ptr %9, align 4
  br label %53

53:                                               ; preds = %52, %12
  call void @llvm.lifetime.end.p0(i64 8, ptr %8) #9
  call void @llvm.lifetime.end.p0(i64 8, ptr %7) #9
  call void @llvm.lifetime.end.p0(i64 8, ptr %6) #9
  call void @llvm.lifetime.end.p0(i64 8, ptr %5) #9
  %54 = load i32, ptr %9, align 4
  switch i32 %54, label %56 [
    i32 0, label %55
    i32 1, label %55
  ]

55:                                               ; preds = %53, %53
  ret void

56:                                               ; preds = %53
  unreachable
}